; Function Attrs: mustprogress nofree norecurse nosync nounwind willreturn memory(argmem: read) uwtable
define noundef zeroext i1 @_ZNK32pxrInternal_v0_24__pxrReserved__7GfVec2deqERKNS_7GfVec2fE(ptr nocapture noundef nonnull readonly align 8 dereferenceable(16) %0, ptr nocapture noundef nonnull readonly align 4 dereferenceable(8) %1) local_unnamed_addr #2 align 2 {
  %3 = load double, ptr %0, align 8
  %4 = load float, ptr %1, align 4
  %5 = fpext float %4 to double
  %6 = fcmp oeq double %3, %5
  %7 = getelementptr inbounds i8, ptr %0, i64 8
  %8 = load double, ptr %7, align 8
  %9 = getelementptr inbounds i8, ptr %1, i64 4
  %10 = load float, ptr %9, align 4
  %11 = fpext float %10 to double
  %12 = fcmp oeq double %8, %11
  %13 = select i1 %6, i1 %12, i1 false
  ret i1 %13
}